; Function Attrs: nounwind sspstrong uwtable
define internal noundef i64 @p_sys_setegid(i64 %0, i64 noundef %1) #1 {
  %3 = alloca i64, align 8
  %.b.i = load i1, ptr @under_gid_switch, align 4
  br i1 %.b.i, label %4, label %check_gid_switch.exit

4:                                                ; preds = %2
  %5 = load i64, ptr @rb_eRuntimeError, align 8, !tbaa !43
  tail call void (i64, ptr, ...) @rb_raise(i64 noundef %5, ptr noundef nonnull @.str.229) #29
  unreachable

check_gid_switch.exit:                            ; preds = %2
  call void @llvm.lifetime.start.p0(i64 8, ptr nonnull %3) #27
  store i64 0, ptr %3, align 8, !tbaa !43
  %6 = call fastcc i32 @obj2gid(i64 noundef %1, ptr noundef %3)
  %7 = load i64, ptr %3, align 8, !tbaa !43
  %.not.i = icmp eq i64 %7, 0
  br i1 %.not.i, label %obj2gid0.exit, label %8

8:                                                ; preds = %check_gid_switch.exit
  %9 = tail call i64 @rb_str_resize(i64 noundef %7, i64 noundef 0) #27
  br label %obj2gid0.exit

obj2gid0.exit:                                    ; preds = %check_gid_switch.exit, %8
  call void @llvm.lifetime.end.p0(i64 8, ptr nonnull %3) #27
  %10 = tail call i32 @setegid(i32 noundef %6) #27
  %.not = icmp eq i32 %10, 0
  br i1 %.not, label %14, label %11

11:                                               ; preds = %obj2gid0.exit
  %12 = tail call ptr @rb_errno_ptr() #27
  %13 = load i32, ptr %12, align 4, !tbaa !60
  tail call void @rb_syserr_fail(i32 noundef %13, ptr noundef null) #29
  unreachable

14:                                               ; preds = %obj2gid0.exit
  ret i64 4
}